target datalayout = "e-m:e-p270:32:32-p271:32:32-p272:64:64-i64:64-i128:128-f80:128-n8:16:32:64-S128"
target triple = "x86_64-pc-linux-gnu"

%"class.cmsys::SystemInformationImplementation" = type <{ i32, %"struct.cmsys::SystemInformationImplementation::CPUFeatures", %"struct.cmsys::SystemInformationImplementation::ID", float, i32, i32, [4 x i8], %"class.std::__cxx11::basic_string", i64, i64, i64, i64, i64, %"class.std::__cxx11::basic_string", %"class.std::__cxx11::basic_string", %"class.std::__cxx11::basic_string", %"class.std::__cxx11::basic_string", %"class.std::__cxx11::basic_string", i8, [7 x i8] }>
%"struct.cmsys::SystemInformationImplementation::CPUFeatures" = type { i8, i8, i8, i8, i8, i8, i8, i8, i8, i8, i8, i8, i8, i32, i32, i32, i32, %"struct.cmsys::SystemInformationImplementation::CPUExtendedFeatures" }
%"struct.cmsys::SystemInformationImplementation::CPUExtendedFeatures" = type { i8, i8, i8, i8, i8, i32, i32, %"struct.cmsys::SystemInformationImplementation::CPUPowerManagement" }
%"struct.cmsys::SystemInformationImplementation::CPUPowerManagement" = type { i8, i8, i8 }
%"struct.cmsys::SystemInformationImplementation::ID" = type { i32, i32, i32, i32, i32, i32, %"class.std::__cxx11::basic_string", %"class.std::__cxx11::basic_string", %"class.std::__cxx11::basic_string", %"class.std::__cxx11::basic_string" }
%"class.std::__cxx11::basic_string" = type { %"struct.std::__cxx11::basic_string<char>::_Alloc_hider", i64, %union.anon }
%"struct.std::__cxx11::basic_string<char>::_Alloc_hider" = type { ptr }
%union.anon = type { i64, [8 x i8] }

; Function Attrs: mustprogress nounwind uwtable
define dso_local noundef zeroext i1 @_ZN5cmsys31SystemInformationImplementation31RetrieveCPUExtendedLevelSupportEi(ptr noundef nonnull align 8 dereferenceable(457) %0, i32 noundef %1) #7 align 2 {
  %3 = alloca i1, align 1
  %4 = alloca ptr, align 8
  %5 = alloca i32, align 4
  %6 = alloca [4 x i32], align 16
  %7 = alloca i32, align 4
  %8 = alloca i32, align 4
  %9 = alloca i32, align 4
  store ptr %0, ptr %4, align 8, !tbaa !12
  store i32 %1, ptr %5, align 4, !tbaa !70
  %10 = load ptr, ptr %4, align 8
  call void @llvm.lifetime.start.p0(i64 16, ptr %6) #3
  call void @llvm.memset.p0.i64(ptr align 16 %6, i8 0, i64 16, i1 false)
  %11 = getelementptr inbounds nuw %"class.cmsys::SystemInformationImplementation", ptr %10, i32 0, i32 0
  %12 = load i32, ptr %11, align 8, !tbaa !13
  %13 = icmp eq i32 %12, 0
  br i1 %13, label %14, label %32

14:                                               ; preds = %2
  %15 = getelementptr inbounds nuw %"class.cmsys::SystemInformationImplementation", ptr %10, i32 0, i32 2
  %16 = getelementptr inbounds nuw %"struct.cmsys::SystemInformationImplementation::ID", ptr %15, i32 0, i32 1
  %17 = load i32, ptr %16, align 4, !tbaa !28
  %18 = icmp slt i32 %17, 5
  br i1 %18, label %19, label %20

19:                                               ; preds = %14
  store i1 false, ptr %3, align 1
  store i32 1, ptr %7, align 4
  br label %125

20:                                               ; preds = %14
  %21 = getelementptr inbounds nuw %"class.cmsys::SystemInformationImplementation", ptr %10, i32 0, i32 2
  %22 = getelementptr inbounds nuw %"struct.cmsys::SystemInformationImplementation::ID", ptr %21, i32 0, i32 1
  %23 = load i32, ptr %22, align 4, !tbaa !28
  %24 = icmp eq i32 %23, 5
  br i1 %24, label %25, label %31

25:                                               ; preds = %20
  %26 = getelementptr inbounds nuw %"class.cmsys::SystemInformationImplementation", ptr %10, i32 0, i32 2
  %27 = getelementptr inbounds nuw %"struct.cmsys::SystemInformationImplementation::ID", ptr %26, i32 0, i32 2
  %28 = load i32, ptr %27, align 8, !tbaa !29
  %29 = icmp slt i32 %28, 6
  br i1 %29, label %30, label %31

30:                                               ; preds = %25
  store i1 false, ptr %3, align 1
  store i32 1, ptr %7, align 4
  br label %125

31:                                               ; preds = %25, %20
  br label %113

32:                                               ; preds = %2
  %33 = getelementptr inbounds nuw %"class.cmsys::SystemInformationImplementation", ptr %10, i32 0, i32 0
  %34 = load i32, ptr %33, align 8, !tbaa !13
  %35 = icmp eq i32 %34, 4
  br i1 %35, label %36, label %65

36:                                               ; preds = %32
  %37 = getelementptr inbounds nuw %"class.cmsys::SystemInformationImplementation", ptr %10, i32 0, i32 2
  %38 = getelementptr inbounds nuw %"struct.cmsys::SystemInformationImplementation::ID", ptr %37, i32 0, i32 1
  %39 = load i32, ptr %38, align 4, !tbaa !28
  %40 = icmp slt i32 %39, 5
  br i1 %40, label %41, label %42

41:                                               ; preds = %36
  store i1 false, ptr %3, align 1
  store i32 1, ptr %7, align 4
  br label %125

42:                                               ; preds = %36
  %43 = getelementptr inbounds nuw %"class.cmsys::SystemInformationImplementation", ptr %10, i32 0, i32 2
  %44 = getelementptr inbounds nuw %"struct.cmsys::SystemInformationImplementation::ID", ptr %43, i32 0, i32 1
  %45 = load i32, ptr %44, align 4, !tbaa !28
  %46 = icmp eq i32 %45, 5
  br i1 %46, label %47, label %53

47:                                               ; preds = %42
  %48 = getelementptr inbounds nuw %"class.cmsys::SystemInformationImplementation", ptr %10, i32 0, i32 2
  %49 = getelementptr inbounds nuw %"struct.cmsys::SystemInformationImplementation::ID", ptr %48, i32 0, i32 2
  %50 = load i32, ptr %49, align 8, !tbaa !29
  %51 = icmp slt i32 %50, 4
  br i1 %51, label %52, label %53

52:                                               ; preds = %47
  store i1 false, ptr %3, align 1
  store i32 1, ptr %7, align 4
  br label %125

53:                                               ; preds = %47, %42
  %54 = getelementptr inbounds nuw %"class.cmsys::SystemInformationImplementation", ptr %10, i32 0, i32 2
  %55 = getelementptr inbounds nuw %"struct.cmsys::SystemInformationImplementation::ID", ptr %54, i32 0, i32 1
  %56 = load i32, ptr %55, align 4, !tbaa !28
  %57 = icmp eq i32 %56, 6
  br i1 %57, label %58, label %64

58:                                               ; preds = %53
  %59 = getelementptr inbounds nuw %"class.cmsys::SystemInformationImplementation", ptr %10, i32 0, i32 2
  %60 = getelementptr inbounds nuw %"struct.cmsys::SystemInformationImplementation::ID", ptr %59, i32 0, i32 2
  %61 = load i32, ptr %60, align 8, !tbaa !29
  %62 = icmp slt i32 %61, 5
  br i1 %62, label %63, label %64

63:                                               ; preds = %58
  store i1 false, ptr %3, align 1
  store i32 1, ptr %7, align 4
  br label %125

64:                                               ; preds = %58, %53
  br label %112

65:                                               ; preds = %32
  %66 = getelementptr inbounds nuw %"class.cmsys::SystemInformationImplementation", ptr %10, i32 0, i32 0
  %67 = load i32, ptr %66, align 8, !tbaa !13
  %68 = icmp eq i32 %67, 6
  br i1 %68, label %69, label %87

69:                                               ; preds = %65
  %70 = getelementptr inbounds nuw %"class.cmsys::SystemInformationImplementation", ptr %10, i32 0, i32 2
  %71 = getelementptr inbounds nuw %"struct.cmsys::SystemInformationImplementation::ID", ptr %70, i32 0, i32 1
  %72 = load i32, ptr %71, align 4, !tbaa !28
  %73 = icmp slt i32 %72, 5
  br i1 %73, label %74, label %75

74:                                               ; preds = %69
  store i1 false, ptr %3, align 1
  store i32 1, ptr %7, align 4
  br label %125

75:                                               ; preds = %69
  %76 = getelementptr inbounds nuw %"class.cmsys::SystemInformationImplementation", ptr %10, i32 0, i32 2
  %77 = getelementptr inbounds nuw %"struct.cmsys::SystemInformationImplementation::ID", ptr %76, i32 0, i32 1
  %78 = load i32, ptr %77, align 4, !tbaa !28
  %79 = icmp eq i32 %78, 5
  br i1 %79, label %80, label %86

80:                                               ; preds = %75
  %81 = getelementptr inbounds nuw %"class.cmsys::SystemInformationImplementation", ptr %10, i32 0, i32 2
  %82 = getelementptr inbounds nuw %"struct.cmsys::SystemInformationImplementation::ID", ptr %81, i32 0, i32 2
  %83 = load i32, ptr %82, align 8, !tbaa !29
  %84 = icmp slt i32 %83, 8
  br i1 %84, label %85, label %86

85:                                               ; preds = %80
  store i1 false, ptr %3, align 1
  store i32 1, ptr %7, align 4
  br label %125

86:                                               ; preds = %80, %75
  br label %111

87:                                               ; preds = %65
  %88 = getelementptr inbounds nuw %"class.cmsys::SystemInformationImplementation", ptr %10, i32 0, i32 0
  %89 = load i32, ptr %88, align 8, !tbaa !13
  %90 = icmp eq i32 %89, 8
  br i1 %90, label %91, label %98

91:                                               ; preds = %87
  %92 = getelementptr inbounds nuw %"class.cmsys::SystemInformationImplementation", ptr %10, i32 0, i32 2
  %93 = getelementptr inbounds nuw %"struct.cmsys::SystemInformationImplementation::ID", ptr %92, i32 0, i32 1
  %94 = load i32, ptr %93, align 4, !tbaa !28
  %95 = icmp slt i32 %94, 5
  br i1 %95, label %96, label %97

96:                                               ; preds = %91
  store i1 false, ptr %3, align 1
  store i32 1, ptr %7, align 4
  br label %125

97:                                               ; preds = %91
  br label %110

98:                                               ; preds = %87
  %99 = getelementptr inbounds nuw %"class.cmsys::SystemInformationImplementation", ptr %10, i32 0, i32 0
  %100 = load i32, ptr %99, align 8, !tbaa !13
  %101 = icmp eq i32 %100, 1
  br i1 %101, label %102, label %109

102:                                              ; preds = %98
  %103 = getelementptr inbounds nuw %"class.cmsys::SystemInformationImplementation", ptr %10, i32 0, i32 2
  %104 = getelementptr inbounds nuw %"struct.cmsys::SystemInformationImplementation::ID", ptr %103, i32 0, i32 1
  %105 = load i32, ptr %104, align 4, !tbaa !28
  %106 = icmp slt i32 %105, 15
  br i1 %106, label %107, label %108

107:                                              ; preds = %102
  store i1 false, ptr %3, align 1
  store i32 1, ptr %7, align 4
  br label %125

108:                                              ; preds = %102
  br label %109

109:                                              ; preds = %108, %98
  br label %110

110:                                              ; preds = %109, %97
  br label %111

111:                                              ; preds = %110, %86
  br label %112

112:                                              ; preds = %111, %64
  br label %113

113:                                              ; preds = %112, %31
  call void @llvm.lifetime.start.p0(i64 4, ptr %8) #3
  %114 = load i32, ptr %5, align 4, !tbaa !70
  %115 = and i32 %114, 2147483647
  store i32 %115, ptr %8, align 4, !tbaa !70
  call void @llvm.lifetime.start.p0(i64 4, ptr %9) #3
  %116 = getelementptr inbounds [4 x i32], ptr %6, i64 0, i64 0
  %117 = load i32, ptr %116, align 16, !tbaa !70
  %118 = and i32 %117, 2147483647
  store i32 %118, ptr %9, align 4, !tbaa !70
  %119 = load i32, ptr %8, align 4, !tbaa !70
  %120 = load i32, ptr %9, align 4, !tbaa !70
  %121 = icmp sgt i32 %119, %120
  br i1 %121, label %122, label %123

122:                                              ; preds = %113
  store i1 false, ptr %3, align 1
  store i32 1, ptr %7, align 4
  br label %124

123:                                              ; preds = %113
  store i1 true, ptr %3, align 1
  store i32 1, ptr %7, align 4
  br label %124

124:                                              ; preds = %123, %122
  call void @llvm.lifetime.end.p0(i64 4, ptr %9) #3
  call void @llvm.lifetime.end.p0(i64 4, ptr %8) #3
  br label %125

125:                                              ; preds = %124, %107, %96, %85, %74, %63, %52, %41, %30, %19
  call void @llvm.lifetime.end.p0(i64 16, ptr %6) #3
  %126 = load i1, ptr %3, align 1
  ret i1 %126
}