; Function Attrs: mustprogress nofree norecurse nosync nounwind willreturn memory(argmem: read) uwtable
define dso_local noundef zeroext i1 @_ZN5cmsys31SystemInformationImplementation31RetrieveCPUExtendedLevelSupportEi(ptr noundef nonnull readonly align 8 captures(none) dereferenceable(457) %0, i32 noundef %1) local_unnamed_addr #8 align 2 {
  %3 = load i32, ptr %0, align 8, !tbaa !17
  switch i32 %3, label %42 [
    i32 0, label %4
    i32 4, label %13
    i32 6, label %25
    i32 8, label %34
    i32 1, label %38
  ]

4:                                                ; preds = %2
  %5 = getelementptr inbounds nuw i8, ptr %0, i64 60
  %6 = load i32, ptr %5, align 4, !tbaa !43
  %7 = icmp slt i32 %6, 5
  br i1 %7, label %44, label %8

8:                                                ; preds = %4
  %9 = icmp eq i32 %6, 5
  %10 = getelementptr inbounds nuw i8, ptr %0, i64 64
  %11 = load i32, ptr %10, align 8
  %12 = icmp slt i32 %11, 6
  %or.cond = select i1 %9, i1 %12, i1 false
  br i1 %or.cond, label %44, label %42

13:                                               ; preds = %2
  %14 = getelementptr inbounds nuw i8, ptr %0, i64 60
  %15 = load i32, ptr %14, align 4, !tbaa !43
  %16 = icmp slt i32 %15, 5
  br i1 %16, label %44, label %17

17:                                               ; preds = %13
  %18 = icmp eq i32 %15, 5
  %19 = getelementptr inbounds nuw i8, ptr %0, i64 64
  %20 = load i32, ptr %19, align 8
  %21 = icmp slt i32 %20, 4
  %or.cond12 = select i1 %18, i1 %21, i1 false
  br i1 %or.cond12, label %44, label %22

22:                                               ; preds = %17
  %23 = icmp eq i32 %15, 6
  %24 = icmp slt i32 %20, 5
  %or.cond15 = select i1 %23, i1 %24, i1 false
  br i1 %or.cond15, label %44, label %42

25:                                               ; preds = %2
  %26 = getelementptr inbounds nuw i8, ptr %0, i64 60
  %27 = load i32, ptr %26, align 4, !tbaa !43
  %28 = icmp slt i32 %27, 5
  br i1 %28, label %44, label %29

29:                                               ; preds = %25
  %30 = icmp eq i32 %27, 5
  %31 = getelementptr inbounds nuw i8, ptr %0, i64 64
  %32 = load i32, ptr %31, align 8
  %33 = icmp slt i32 %32, 8
  %or.cond18 = select i1 %30, i1 %33, i1 false
  br i1 %or.cond18, label %44, label %42

34:                                               ; preds = %2
  %35 = getelementptr inbounds nuw i8, ptr %0, i64 60
  %36 = load i32, ptr %35, align 4, !tbaa !43
  %37 = icmp slt i32 %36, 5
  br i1 %37, label %44, label %42

38:                                               ; preds = %2
  %39 = getelementptr inbounds nuw i8, ptr %0, i64 60
  %40 = load i32, ptr %39, align 4, !tbaa !43
  %41 = icmp slt i32 %40, 15
  br i1 %41, label %44, label %42

42:                                               ; preds = %2, %22, %34, %38, %29, %8
  %43 = and i32 %1, 2147483647
  %.not = icmp eq i32 %43, 0
  br label %44

44:                                               ; preds = %38, %34, %29, %25, %22, %17, %13, %8, %4, %42
  %.0 = phi i1 [ %.not, %42 ], [ false, %4 ], [ false, %8 ], [ false, %13 ], [ false, %17 ], [ false, %22 ], [ false, %25 ], [ false, %29 ], [ false, %34 ], [ false, %38 ]
  ret i1 %.0
}